target datalayout = "e-m:e-p270:32:32-p271:32:32-p272:64:64-i64:64-i128:128-f80:128-n8:16:32:64-S128"
target triple = "x86_64-pc-linux-gnu"

%struct.Gia_Man_t_ = type { ptr, ptr, i32, i32, i32, i32, ptr, ptr, i32, i32, i32, ptr, ptr, %struct.Vec_Int_t_, %struct.Vec_Int_t_, i32, i32, i32, %struct.Vec_Int_t_, ptr, ptr, ptr, i32, i32, i32, i32, ptr, ptr, ptr, ptr, ptr, i32, i32, ptr, i32, ptr, ptr, ptr, ptr, ptr, ptr, ptr, ptr, ptr, ptr, ptr, ptr, ptr, ptr, ptr, ptr, ptr, ptr, %struct.Vec_Int_t_, %struct.Vec_Int_t_, ptr, ptr, ptr, ptr, ptr, ptr, ptr, ptr, ptr, ptr, ptr, ptr, ptr, ptr, ptr, ptr, ptr, ptr, ptr, ptr, ptr, i32, float, float, ptr, ptr, i32, ptr, ptr, ptr, ptr, ptr, ptr, ptr, ptr, ptr, ptr, ptr, ptr, ptr, ptr, ptr, i64, i64, ptr, ptr, i32, i32, i32, i32, i32, i32, i32, i32, i32, i32, i32, i32, ptr, ptr, ptr, ptr, ptr, ptr, ptr, ptr, i32, i32, i32, ptr, i32, i32, ptr, ptr, ptr, ptr, ptr, ptr, i32, i32, ptr, %struct.Vec_Int_t_, %struct.Vec_Int_t_, %struct.Vec_Int_t_, ptr, ptr, ptr, i32, i32, i32, i32, ptr, ptr, ptr, ptr, ptr }
%struct.Vec_Int_t_ = type { i32, i32, ptr }

@.str.12 = private unnamed_addr constant [2 x i8] c"\0A\00", align 1
@.str.17 = private unnamed_addr constant [4 x i8] c"%d \00", align 1
@.str.18 = private unnamed_addr constant [3 x i8] c"{ \00", align 1
@.str.19 = private unnamed_addr constant [3 x i8] c"}\0A\00", align 1
@.str.20 = private unnamed_addr constant [20 x i8] c"Packing (N=%d)  :  \00", align 1
@.str.21 = private unnamed_addr constant [17 x i8] c"%d x LUT = %d   \00", align 1
@.str.22 = private unnamed_addr constant [14 x i8] c"Total = %d   \00", align 1
@.str.23 = private unnamed_addr constant [15 x i8] c"Total LUT = %d\00", align 1

; Function Attrs: inlinehint nounwind uwtable
define internal i32 @Vec_IntSize(ptr noundef %0) #3 {
  %2 = alloca ptr, align 8
  store ptr %0, ptr %2, align 8, !tbaa !74
  %3 = load ptr, ptr %2, align 8, !tbaa !74
  %4 = getelementptr inbounds nuw %struct.Vec_Int_t_, ptr %3, i32 0, i32 1
  %5 = load i32, ptr %4, align 4, !tbaa !75
  ret i32 %5
}

; Function Attrs: inlinehint nounwind uwtable
define internal i32 @Vec_IntEntry(ptr noundef %0, i32 noundef %1) #3 {
  %3 = alloca ptr, align 8
  %4 = alloca i32, align 4
  store ptr %0, ptr %3, align 8, !tbaa !74
  store i32 %1, ptr %4, align 4, !tbaa !42
  %5 = load ptr, ptr %3, align 8, !tbaa !74
  %6 = getelementptr inbounds nuw %struct.Vec_Int_t_, ptr %5, i32 0, i32 2
  %7 = load ptr, ptr %6, align 8, !tbaa !94
  %8 = load i32, ptr %4, align 4, !tbaa !42
  %9 = sext i32 %8 to i64
  %10 = getelementptr inbounds i32, ptr %7, i64 %9
  %11 = load i32, ptr %10, align 4, !tbaa !42
  ret i32 %11
}

; Function Attrs: nounwind uwtable
define void @Gia_ManPrintPackingStats(ptr noundef %0) #0 {
  %2 = alloca ptr, align 8
  %3 = alloca i32, align 4
  %4 = alloca i32, align 4
  %5 = alloca [5 x i32], align 16
  %6 = alloca i32, align 4
  %7 = alloca i32, align 4
  %8 = alloca i32, align 4
  %9 = alloca i32, align 4
  %10 = alloca i32, align 4
  %11 = alloca i32, align 4
  %12 = alloca i32, align 4
  %13 = alloca i32, align 4
  store ptr %0, ptr %2, align 8, !tbaa !40
  call void @llvm.lifetime.start.p0(i64 4, ptr %3) #14
  store i32 0, ptr %3, align 4, !tbaa !42
  call void @llvm.lifetime.start.p0(i64 4, ptr %4) #14
  store i32 200, ptr %4, align 4, !tbaa !42
  call void @llvm.lifetime.start.p0(i64 20, ptr %5) #14
  call void @llvm.memset.p0.i64(ptr align 16 %5, i8 0, i64 20, i1 false)
  call void @llvm.lifetime.start.p0(i64 4, ptr %6) #14
  call void @llvm.lifetime.start.p0(i64 4, ptr %7) #14
  call void @llvm.lifetime.start.p0(i64 4, ptr %8) #14
  call void @llvm.lifetime.start.p0(i64 4, ptr %9) #14
  call void @llvm.lifetime.start.p0(i64 4, ptr %10) #14
  call void @llvm.lifetime.start.p0(i64 4, ptr %11) #14
  store i32 -1, ptr %11, align 4, !tbaa !42
  call void @llvm.lifetime.start.p0(i64 4, ptr %12) #14
  store i32 0, ptr %12, align 4, !tbaa !42
  %14 = load ptr, ptr %2, align 8, !tbaa !40
  %15 = getelementptr inbounds nuw %struct.Gia_Man_t_, ptr %14, i32 0, i32 42
  %16 = load ptr, ptr %15, align 8, !tbaa !115
  %17 = icmp eq ptr %16, null
  br i1 %17, label %18, label %19

18:                                               ; preds = %1
  store i32 1, ptr %13, align 4
  br label %137

19:                                               ; preds = %1
  %20 = load ptr, ptr %2, align 8, !tbaa !40
  %21 = getelementptr inbounds nuw %struct.Gia_Man_t_, ptr %20, i32 0, i32 42
  %22 = load ptr, ptr %21, align 8, !tbaa !115
  %23 = call i32 @Vec_IntEntry(ptr noundef %22, i32 noundef 0)
  store i32 %23, ptr %9, align 4, !tbaa !42
  store i32 0, ptr %10, align 4, !tbaa !42
  store i32 1, ptr %6, align 4, !tbaa !42
  br label %24

24:                                               ; preds = %91, %19
  %25 = load i32, ptr %6, align 4, !tbaa !42
  %26 = load ptr, ptr %2, align 8, !tbaa !40
  %27 = getelementptr inbounds nuw %struct.Gia_Man_t_, ptr %26, i32 0, i32 42
  %28 = load ptr, ptr %27, align 8, !tbaa !115
  %29 = call i32 @Vec_IntSize(ptr noundef %28)
  %30 = icmp slt i32 %25, %29
  br i1 %30, label %31, label %37

31:                                               ; preds = %24
  %32 = load ptr, ptr %2, align 8, !tbaa !40
  %33 = getelementptr inbounds nuw %struct.Gia_Man_t_, ptr %32, i32 0, i32 42
  %34 = load ptr, ptr %33, align 8, !tbaa !115
  %35 = load i32, ptr %6, align 4, !tbaa !42
  %36 = call i32 @Vec_IntEntry(ptr noundef %34, i32 noundef %35)
  store i32 %36, ptr %8, align 4, !tbaa !42
  br label %37

37:                                               ; preds = %31, %24
  %38 = phi i1 [ false, %24 ], [ true, %31 ]
  br i1 %38, label %39, label %94

39:                                               ; preds = %37
  %40 = load i32, ptr %8, align 4, !tbaa !42
  %41 = sext i32 %40 to i64
  %42 = getelementptr inbounds [5 x i32], ptr %5, i64 0, i64 %41
  %43 = load i32, ptr %42, align 4, !tbaa !42
  %44 = add nsw i32 %43, 1
  store i32 %44, ptr %42, align 4, !tbaa !42
  %45 = load i32, ptr %6, align 4, !tbaa !42
  %46 = add nsw i32 %45, 1
  store i32 %46, ptr %6, align 4, !tbaa !42
  %47 = load i32, ptr %3, align 4, !tbaa !42
  %48 = icmp ne i32 %47, 0
  br i1 %48, label %49, label %54

49:                                               ; preds = %39
  %50 = load i32, ptr %10, align 4, !tbaa !42
  %51 = load i32, ptr %4, align 4, !tbaa !42
  %52 = icmp slt i32 %50, %51
  br i1 %52, label %53, label %54

53:                                               ; preds = %49
  call void (i32, ptr, ...) @Abc_Print(i32 noundef 1, ptr noundef @.str.18)
  br label %54

54:                                               ; preds = %53, %49, %39
  store i32 0, ptr %7, align 4, !tbaa !42
  br label %55

55:                                               ; preds = %73, %54
  %56 = load i32, ptr %7, align 4, !tbaa !42
  %57 = load i32, ptr %8, align 4, !tbaa !42
  %58 = icmp slt i32 %56, %57
  br i1 %58, label %59, label %78

59:                                               ; preds = %55
  %60 = load i32, ptr %3, align 4, !tbaa !42
  %61 = icmp ne i32 %60, 0
  br i1 %61, label %62, label %72

62:                                               ; preds = %59
  %63 = load i32, ptr %10, align 4, !tbaa !42
  %64 = load i32, ptr %4, align 4, !tbaa !42
  %65 = icmp slt i32 %63, %64
  br i1 %65, label %66, label %72

66:                                               ; preds = %62
  %67 = load ptr, ptr %2, align 8, !tbaa !40
  %68 = getelementptr inbounds nuw %struct.Gia_Man_t_, ptr %67, i32 0, i32 42
  %69 = load ptr, ptr %68, align 8, !tbaa !115
  %70 = load i32, ptr %6, align 4, !tbaa !42
  %71 = call i32 @Vec_IntEntry(ptr noundef %69, i32 noundef %70)
  call void (i32, ptr, ...) @Abc_Print(i32 noundef 1, ptr noundef @.str.17, i32 noundef %71)
  br label %72

72:                                               ; preds = %66, %62, %59
  br label %73

73:                                               ; preds = %72
  %74 = load i32, ptr %7, align 4, !tbaa !42
  %75 = add nsw i32 %74, 1
  store i32 %75, ptr %7, align 4, !tbaa !42
  %76 = load i32, ptr %6, align 4, !tbaa !42
  %77 = add nsw i32 %76, 1
  store i32 %77, ptr %6, align 4, !tbaa !42
  br label %55, !llvm.loop !116

78:                                               ; preds = %55
  %79 = load i32, ptr %3, align 4, !tbaa !42
  %80 = icmp ne i32 %79, 0
  br i1 %80, label %81, label %86

81:                                               ; preds = %78
  %82 = load i32, ptr %10, align 4, !tbaa !42
  %83 = load i32, ptr %4, align 4, !tbaa !42
  %84 = icmp slt i32 %82, %83
  br i1 %84, label %85, label %86

85:                                               ; preds = %81
  call void (i32, ptr, ...) @Abc_Print(i32 noundef 1, ptr noundef @.str.19)
  br label %86

86:                                               ; preds = %85, %81, %78
  %87 = load i32, ptr %6, align 4, !tbaa !42
  %88 = add nsw i32 %87, -1
  store i32 %88, ptr %6, align 4, !tbaa !42
  %89 = load i32, ptr %10, align 4, !tbaa !42
  %90 = add nsw i32 %89, 1
  store i32 %90, ptr %10, align 4, !tbaa !42
  br label %91

91:                                               ; preds = %86
  %92 = load i32, ptr %6, align 4, !tbaa !42
  %93 = add nsw i32 %92, 1
  store i32 %93, ptr %6, align 4, !tbaa !42
  br label %24, !llvm.loop !117

94:                                               ; preds = %37
  %95 = getelementptr inbounds [5 x i32], ptr %5, i64 0, i64 3
  %96 = load i32, ptr %95, align 4, !tbaa !42
  %97 = icmp sgt i32 %96, 0
  br i1 %97, label %98, label %99

98:                                               ; preds = %94
  store i32 3, ptr %11, align 4, !tbaa !42
  br label %111

99:                                               ; preds = %94
  %100 = getelementptr inbounds [5 x i32], ptr %5, i64 0, i64 2
  %101 = load i32, ptr %100, align 8, !tbaa !42
  %102 = icmp sgt i32 %101, 0
  br i1 %102, label %103, label %104

103:                                              ; preds = %99
  store i32 2, ptr %11, align 4, !tbaa !42
  br label %110

104:                                              ; preds = %99
  %105 = getelementptr inbounds [5 x i32], ptr %5, i64 0, i64 1
  %106 = load i32, ptr %105, align 4, !tbaa !42
  %107 = icmp sgt i32 %106, 0
  br i1 %107, label %108, label %109

108:                                              ; preds = %104
  store i32 1, ptr %11, align 4, !tbaa !42
  br label %109

109:                                              ; preds = %108, %104
  br label %110

110:                                              ; preds = %109, %103
  br label %111

111:                                              ; preds = %110, %98
  %112 = load i32, ptr %11, align 4, !tbaa !42
  call void (i32, ptr, ...) @Abc_Print(i32 noundef 1, ptr noundef @.str.20, i32 noundef %112)
  store i32 1, ptr %6, align 4, !tbaa !42
  br label %113

113:                                              ; preds = %131, %111
  %114 = load i32, ptr %6, align 4, !tbaa !42
  %115 = load i32, ptr %11, align 4, !tbaa !42
  %116 = icmp sle i32 %114, %115
  br i1 %116, label %117, label %134

117:                                              ; preds = %113
  %118 = load i32, ptr %6, align 4, !tbaa !42
  %119 = load i32, ptr %6, align 4, !tbaa !42
  %120 = sext i32 %119 to i64
  %121 = getelementptr inbounds [5 x i32], ptr %5, i64 0, i64 %120
  %122 = load i32, ptr %121, align 4, !tbaa !42
  call void (i32, ptr, ...) @Abc_Print(i32 noundef 1, ptr noundef @.str.21, i32 noundef %118, i32 noundef %122)
  %123 = load i32, ptr %6, align 4, !tbaa !42
  %124 = load i32, ptr %6, align 4, !tbaa !42
  %125 = sext i32 %124 to i64
  %126 = getelementptr inbounds [5 x i32], ptr %5, i64 0, i64 %125
  %127 = load i32, ptr %126, align 4, !tbaa !42
  %128 = mul nsw i32 %123, %127
  %129 = load i32, ptr %12, align 4, !tbaa !42
  %130 = add nsw i32 %129, %128
  store i32 %130, ptr %12, align 4, !tbaa !42
  br label %131

131:                                              ; preds = %117
  %132 = load i32, ptr %6, align 4, !tbaa !42
  %133 = add nsw i32 %132, 1
  store i32 %133, ptr %6, align 4, !tbaa !42
  br label %113, !llvm.loop !118

134:                                              ; preds = %113
  %135 = load i32, ptr %10, align 4, !tbaa !42
  call void (i32, ptr, ...) @Abc_Print(i32 noundef 1, ptr noundef @.str.22, i32 noundef %135)
  %136 = load i32, ptr %12, align 4, !tbaa !42
  call void (i32, ptr, ...) @Abc_Print(i32 noundef 1, ptr noundef @.str.23, i32 noundef %136)
  call void (i32, ptr, ...) @Abc_Print(i32 noundef 1, ptr noundef @.str.12)
  store i32 0, ptr %13, align 4
  br label %137

137:                                              ; preds = %134, %18
  call void @llvm.lifetime.end.p0(i64 4, ptr %12) #14
  call void @llvm.lifetime.end.p0(i64 4, ptr %11) #14
  call void @llvm.lifetime.end.p0(i64 4, ptr %10) #14
  call void @llvm.lifetime.end.p0(i64 4, ptr %9) #14
  call void @llvm.lifetime.end.p0(i64 4, ptr %8) #14
  call void @llvm.lifetime.end.p0(i64 4, ptr %7) #14
  call void @llvm.lifetime.end.p0(i64 4, ptr %6) #14
  call void @llvm.lifetime.end.p0(i64 20, ptr %5) #14
  call void @llvm.lifetime.end.p0(i64 4, ptr %4) #14
  call void @llvm.lifetime.end.p0(i64 4, ptr %3) #14
  %138 = load i32, ptr %13, align 4
  switch i32 %138, label %140 [
    i32 0, label %139
    i32 1, label %139
  ]

139:                                              ; preds = %137, %137
  ret void

140:                                              ; preds = %137
  unreachable
}