; Function Attrs: nounwind uwtable
define void @Gia_ManPrintPackingStats(ptr noundef readonly captures(none) %0) local_unnamed_addr #4 {
  %2 = alloca [5 x i32], align 16
  call void @llvm.lifetime.start.p0(i64 20, ptr nonnull %2) #27
  call void @llvm.memset.p0.i64(ptr noundef nonnull align 16 dereferenceable(20) %2, i8 0, i64 20, i1 false)
  %3 = getelementptr inbounds nuw i8, ptr %0, i64 304
  %4 = load ptr, ptr %3, align 8, !tbaa !99
  %5 = icmp eq ptr %4, null
  br i1 %5, label %35, label %6

6:                                                ; preds = %1
  %7 = getelementptr i8, ptr %4, i64 8
  %.val41 = load ptr, ptr %7, align 8, !tbaa !47
  %8 = getelementptr i8, ptr %4, i64 4
  %.val42 = load i32, ptr %8, align 4, !tbaa !54
  %9 = icmp sgt i32 %.val42, 1
  br i1 %9, label %.lr.ph, label %.critedge.thread

.lr.ph:                                           ; preds = %6, %.lr.ph
  %.03744 = phi i32 [ %19, %.lr.ph ], [ 0, %6 ]
  %.03843 = phi i32 [ %18, %.lr.ph ], [ 1, %6 ]
  %10 = sext i32 %.03843 to i64
  %11 = getelementptr inbounds i32, ptr %.val41, i64 %10
  %12 = load i32, ptr %11, align 4, !tbaa !48
  %13 = sext i32 %12 to i64
  %14 = getelementptr inbounds [5 x i32], ptr %2, i64 0, i64 %13
  %15 = load i32, ptr %14, align 4, !tbaa !48
  %16 = add nsw i32 %15, 1
  store i32 %16, ptr %14, align 4, !tbaa !48
  %smax = tail call i32 @llvm.smax.i32(i32 %12, i32 0)
  %17 = add nsw i32 %.03843, 1
  %18 = add i32 %17, %smax
  %19 = add nuw nsw i32 %.03744, 1
  %20 = icmp slt i32 %18, %.val42
  br i1 %20, label %.lr.ph, label %.critedge, !llvm.loop !100

.critedge:                                        ; preds = %.lr.ph
  %.phi.trans.insert = getelementptr inbounds nuw i8, ptr %2, i64 12
  %.pre = load i32, ptr %.phi.trans.insert, align 4, !tbaa !48
  %21 = icmp sgt i32 %.pre, 0
  br i1 %21, label %.lr.ph48.preheader, label %.critedge.thread

.critedge.thread:                                 ; preds = %6, %.critedge
  %.037.lcssa53 = phi i32 [ %19, %.critedge ], [ 0, %6 ]
  %22 = getelementptr inbounds nuw i8, ptr %2, i64 8
  %23 = load i32, ptr %22, align 8, !tbaa !48
  %24 = icmp sgt i32 %23, 0
  br i1 %24, label %.lr.ph48.preheader, label %25

25:                                               ; preds = %.critedge.thread
  %26 = getelementptr inbounds nuw i8, ptr %2, i64 4
  %27 = load i32, ptr %26, align 4, !tbaa !48
  %.inv = icmp slt i32 %27, 1
  br i1 %.inv, label %28, label %.lr.ph48.preheader

28:                                               ; preds = %25
  tail call void (i32, ptr, ...) @Abc_Print(i32 noundef 1, ptr noundef nonnull @.str.20, i32 noundef -1)
  br label %._crit_edge

.lr.ph48.preheader:                               ; preds = %.critedge, %.critedge.thread, %25
  %.037.lcssa54.ph = phi i32 [ %.037.lcssa53, %25 ], [ %.037.lcssa53, %.critedge.thread ], [ %19, %.critedge ]
  %.036.ph = phi i32 [ 1, %25 ], [ 2, %.critedge.thread ], [ 3, %.critedge ]
  tail call void (i32, ptr, ...) @Abc_Print(i32 noundef 1, ptr noundef nonnull @.str.20, i32 noundef %.036.ph)
  %29 = add nuw nsw i32 %.036.ph, 1
  %wide.trip.count = zext nneg i32 %29 to i64
  br label %.lr.ph48

.lr.ph48:                                         ; preds = %.lr.ph48.preheader, %.lr.ph48
  %indvars.iv = phi i64 [ 1, %.lr.ph48.preheader ], [ %indvars.iv.next, %.lr.ph48 ]
  %.047 = phi i32 [ 0, %.lr.ph48.preheader ], [ %34, %.lr.ph48 ]
  %30 = getelementptr inbounds nuw [5 x i32], ptr %2, i64 0, i64 %indvars.iv
  %31 = load i32, ptr %30, align 4, !tbaa !48
  %32 = trunc nuw nsw i64 %indvars.iv to i32
  tail call void (i32, ptr, ...) @Abc_Print(i32 noundef 1, ptr noundef nonnull @.str.21, i32 noundef %32, i32 noundef %31)
  %33 = mul nsw i32 %31, %32
  %34 = add nsw i32 %33, %.047
  %indvars.iv.next = add nuw nsw i64 %indvars.iv, 1
  %exitcond.not = icmp eq i64 %indvars.iv.next, %wide.trip.count
  br i1 %exitcond.not, label %._crit_edge, label %.lr.ph48, !llvm.loop !101

._crit_edge:                                      ; preds = %.lr.ph48, %28
  %.037.lcssa5459 = phi i32 [ %.037.lcssa53, %28 ], [ %.037.lcssa54.ph, %.lr.ph48 ]
  %.0.lcssa = phi i32 [ 0, %28 ], [ %34, %.lr.ph48 ]
  tail call void (i32, ptr, ...) @Abc_Print(i32 noundef 1, ptr noundef nonnull @.str.22, i32 noundef %.037.lcssa5459)
  tail call void (i32, ptr, ...) @Abc_Print(i32 noundef 1, ptr noundef nonnull @.str.23, i32 noundef %.0.lcssa)
  tail call void (i32, ptr, ...) @Abc_Print(i32 noundef 1, ptr noundef nonnull @.str.12)
  br label %35

35:                                               ; preds = %1, %._crit_edge
  call void @llvm.lifetime.end.p0(i64 20, ptr nonnull %2) #27
  ret void
}